; ModuleID = '63/1923.c'
source_filename = "63/1923.c"
target datalayout = "e-m:e-p270:32:32-p271:32:32-p272:64:64-i64:64-f80:128-n8:16:32:64-S128"
target triple = "x86_64-pc-linux-gnu"

@.str = private unnamed_addr constant [5 x i8] c"%d%d\00", align 1
@.str.1 = private unnamed_addr constant [3 x i8] c"%d\00", align 1
@.str.2 = private unnamed_addr constant [4 x i8] c"%d \00", align 1
@.str.3 = private unnamed_addr constant [4 x i8] c"%d\0A\00", align 1

; Function Attrs: noinline nounwind uwtable
define dso_local i32 @main() #0 {
  %1 = alloca i32, align 4
  %2 = alloca i32, align 4
  %3 = alloca i32, align 4
  %4 = alloca i32, align 4
  %5 = alloca i32, align 4
  %6 = alloca i32, align 4
  %7 = alloca i32, align 4
  %8 = alloca [100 x [100 x i32]], align 16
  %9 = alloca [100 x [100 x i32]], align 16
  %10 = alloca [100 x [100 x i32]], align 16
  %11 = alloca i32, align 4
  %12 = alloca i32, align 4
  %13 = alloca i32, align 4
  %14 = alloca i32, align 4
  %15 = alloca i32, align 4
  %16 = alloca i32, align 4
  store i32 0, i32* %1, align 4
  %17 = call i32 (i8*, ...) @__isoc99_scanf(i8* getelementptr inbounds ([5 x i8], [5 x i8]* @.str, i64 0, i64 0), i32* %5, i32* %7)
  store i32 0, i32* %11, align 4
  br label %18

18:                                               ; preds = %39, %0
  %19 = load i32, i32* %11, align 4
  %20 = load i32, i32* %5, align 4
  %21 = icmp slt i32 %19, %20
  br i1 %21, label %22, label %42

22:                                               ; preds = %18
  store i32 0, i32* %12, align 4
  br label %23

23:                                               ; preds = %35, %22
  %24 = load i32, i32* %12, align 4
  %25 = load i32, i32* %7, align 4
  %26 = icmp slt i32 %24, %25
  br i1 %26, label %27, label %38

27:                                               ; preds = %23
  %28 = load i32, i32* %11, align 4
  %29 = sext i32 %28 to i64
  %30 = getelementptr inbounds [100 x [100 x i32]], [100 x [100 x i32]]* %8, i64 0, i64 %29
  %31 = load i32, i32* %12, align 4
  %32 = sext i32 %31 to i64
  %33 = getelementptr inbounds [100 x i32], [100 x i32]* %30, i64 0, i64 %32
  %34 = call i32 (i8*, ...) @__isoc99_scanf(i8* getelementptr inbounds ([3 x i8], [3 x i8]* @.str.1, i64 0, i64 0), i32* %33)
  br label %35

35:                                               ; preds = %27
  %36 = load i32, i32* %12, align 4
  %37 = add nsw i32 %36, 1
  store i32 %37, i32* %12, align 4
  br label %23

38:                                               ; preds = %23
  br label %39

39:                                               ; preds = %38
  %40 = load i32, i32* %11, align 4
  %41 = add nsw i32 %40, 1
  store i32 %41, i32* %11, align 4
  br label %18

42:                                               ; preds = %18
  %43 = call i32 (i8*, ...) @__isoc99_scanf(i8* getelementptr inbounds ([5 x i8], [5 x i8]* @.str, i64 0, i64 0), i32* %7, i32* %6)
  store i32 0, i32* %13, align 4
  br label %44

44:                                               ; preds = %65, %42
  %45 = load i32, i32* %13, align 4
  %46 = load i32, i32* %7, align 4
  %47 = icmp slt i32 %45, %46
  br i1 %47, label %48, label %68

48:                                               ; preds = %44
  store i32 0, i32* %14, align 4
  br label %49

49:                                               ; preds = %61, %48
  %50 = load i32, i32* %14, align 4
  %51 = load i32, i32* %6, align 4
  %52 = icmp slt i32 %50, %51
  br i1 %52, label %53, label %64

53:                                               ; preds = %49
  %54 = load i32, i32* %13, align 4
  %55 = sext i32 %54 to i64
  %56 = getelementptr inbounds [100 x [100 x i32]], [100 x [100 x i32]]* %9, i64 0, i64 %55
  %57 = load i32, i32* %14, align 4
  %58 = sext i32 %57 to i64
  %59 = getelementptr inbounds [100 x i32], [100 x i32]* %56, i64 0, i64 %58
  %60 = call i32 (i8*, ...) @__isoc99_scanf(i8* getelementptr inbounds ([3 x i8], [3 x i8]* @.str.1, i64 0, i64 0), i32* %59)
  br label %61

61:                                               ; preds = %53
  %62 = load i32, i32* %14, align 4
  %63 = add nsw i32 %62, 1
  store i32 %63, i32* %14, align 4
  br label %49

64:                                               ; preds = %49
  br label %65

65:                                               ; preds = %64
  %66 = load i32, i32* %13, align 4
  %67 = add nsw i32 %66, 1
  store i32 %67, i32* %13, align 4
  br label %44

68:                                               ; preds = %44
  store i32 0, i32* %2, align 4
  br label %69

69:                                               ; preds = %121, %68
  %70 = load i32, i32* %2, align 4
  %71 = load i32, i32* %5, align 4
  %72 = icmp slt i32 %70, %71
  br i1 %72, label %73, label %124

73:                                               ; preds = %69
  store i32 0, i32* %3, align 4
  br label %74

74:                                               ; preds = %117, %73
  %75 = load i32, i32* %3, align 4
  %76 = load i32, i32* %6, align 4
  %77 = icmp slt i32 %75, %76
  br i1 %77, label %78, label %120

78:                                               ; preds = %74
  %79 = load i32, i32* %2, align 4
  %80 = sext i32 %79 to i64
  %81 = getelementptr inbounds [100 x [100 x i32]], [100 x [100 x i32]]* %10, i64 0, i64 %80
  %82 = load i32, i32* %3, align 4
  %83 = sext i32 %82 to i64
  %84 = getelementptr inbounds [100 x i32], [100 x i32]* %81, i64 0, i64 %83
  store i32 0, i32* %84, align 4
  store i32 0, i32* %4, align 4
  br label %85

85:                                               ; preds = %113, %78
  %86 = load i32, i32* %4, align 4
  %87 = load i32, i32* %7, align 4
  %88 = icmp slt i32 %86, %87
  br i1 %88, label %89, label %116

89:                                               ; preds = %85
  %90 = load i32, i32* %2, align 4
  %91 = sext i32 %90 to i64
  %92 = getelementptr inbounds [100 x [100 x i32]], [100 x [100 x i32]]* %8, i64 0, i64 %91
  %93 = load i32, i32* %4, align 4
  %94 = sext i32 %93 to i64
  %95 = getelementptr inbounds [100 x i32], [100 x i32]* %92, i64 0, i64 %94
  %96 = load i32, i32* %95, align 4
  %97 = load i32, i32* %4, align 4
  %98 = sext i32 %97 to i64
  %99 = getelementptr inbounds [100 x [100 x i32]], [100 x [100 x i32]]* %9, i64 0, i64 %98
  %100 = load i32, i32* %3, align 4
  %101 = sext i32 %100 to i64
  %102 = getelementptr inbounds [100 x i32], [100 x i32]* %99, i64 0, i64 %101
  %103 = load i32, i32* %102, align 4
  %104 = mul nsw i32 %96, %103
  %105 = load i32, i32* %2, align 4
  %106 = sext i32 %105 to i64
  %107 = getelementptr inbounds [100 x [100 x i32]], [100 x [100 x i32]]* %10, i64 0, i64 %106
  %108 = load i32, i32* %3, align 4
  %109 = sext i32 %108 to i64
  %110 = getelementptr inbounds [100 x i32], [100 x i32]* %107, i64 0, i64 %109
  %111 = load i32, i32* %110, align 4
  %112 = add nsw i32 %111, %104
  store i32 %112, i32* %110, align 4
  br label %113

113:                                              ; preds = %89
  %114 = load i32, i32* %4, align 4
  %115 = add nsw i32 %114, 1
  store i32 %115, i32* %4, align 4
  br label %85

116:                                              ; preds = %85
  br label %117

117:                                              ; preds = %116
  %118 = load i32, i32* %3, align 4
  %119 = add nsw i32 %118, 1
  store i32 %119, i32* %3, align 4
  br label %74

120:                                              ; preds = %74
  br label %121

121:                                              ; preds = %120
  %122 = load i32, i32* %2, align 4
  %123 = add nsw i32 %122, 1
  store i32 %123, i32* %2, align 4
  br label %69

124:                                              ; preds = %69
  store i32 0, i32* %15, align 4
  br label %125

125:                                              ; preds = %162, %124
  %126 = load i32, i32* %15, align 4
  %127 = load i32, i32* %5, align 4
  %128 = icmp slt i32 %126, %127
  br i1 %128, label %129, label %165

129:                                              ; preds = %125
  store i32 0, i32* %16, align 4
  br label %130

130:                                              ; preds = %158, %129
  %131 = load i32, i32* %16, align 4
  %132 = load i32, i32* %6, align 4
  %133 = icmp slt i32 %131, %132
  br i1 %133, label %134, label %161

134:                                              ; preds = %130
  %135 = load i32, i32* %16, align 4
  %136 = load i32, i32* %6, align 4
  %137 = sub nsw i32 %136, 1
  %138 = icmp slt i32 %135, %137
  br i1 %138, label %139, label %148

139:                                              ; preds = %134
  %140 = load i32, i32* %15, align 4
  %141 = sext i32 %140 to i64
  %142 = getelementptr inbounds [100 x [100 x i32]], [100 x [100 x i32]]* %10, i64 0, i64 %141
  %143 = load i32, i32* %16, align 4
  %144 = sext i32 %143 to i64
  %145 = getelementptr inbounds [100 x i32], [100 x i32]* %142, i64 0, i64 %144
  %146 = load i32, i32* %145, align 4
  %147 = call i32 (i8*, ...) @printf(i8* getelementptr inbounds ([4 x i8], [4 x i8]* @.str.2, i64 0, i64 0), i32 %146)
  br label %157

148:                                              ; preds = %134
  %149 = load i32, i32* %15, align 4
  %150 = sext i32 %149 to i64
  %151 = getelementptr inbounds [100 x [100 x i32]], [100 x [100 x i32]]* %10, i64 0, i64 %150
  %152 = load i32, i32* %16, align 4
  %153 = sext i32 %152 to i64
  %154 = getelementptr inbounds [100 x i32], [100 x i32]* %151, i64 0, i64 %153
  %155 = load i32, i32* %154, align 4
  %156 = call i32 (i8*, ...) @printf(i8* getelementptr inbounds ([4 x i8], [4 x i8]* @.str.3, i64 0, i64 0), i32 %155)
  br label %157

157:                                              ; preds = %148, %139
  br label %158

158:                                              ; preds = %157
  %159 = load i32, i32* %16, align 4
  %160 = add nsw i32 %159, 1
  store i32 %160, i32* %16, align 4
  br label %130

161:                                              ; preds = %130
  br label %162

162:                                              ; preds = %161
  %163 = load i32, i32* %15, align 4
  %164 = add nsw i32 %163, 1
  store i32 %164, i32* %15, align 4
  br label %125

165:                                              ; preds = %125
  %166 = load i32, i32* %1, align 4
  ret i32 %166
}

declare dso_local i32 @__isoc99_scanf(i8*, ...) #1

declare dso_local i32 @printf(i8*, ...) #1


!llvm.module.flags = !{!0}
!llvm.ident = !{!1}

!0 = !{i32 1, !"wchar_size", i32 4}
!1 = !{!"clang version 10.0.0-4ubuntu1 "}
